target datalayout = "e-m:e-p270:32:32-p271:32:32-p272:64:64-i64:64-i128:128-f80:128-n8:16:32:64-S128"
target triple = "x86_64-pc-linux-gnu"

%"class.icu_77::TimeUnitFormat" = type <{ %"class.icu_77::MeasureFormat", [7 x ptr], i32, [4 x i8] }>
%"class.icu_77::MeasureFormat" = type { %"class.icu_77::Format", ptr, ptr, ptr, i32, ptr }
%"class.icu_77::Format" = type { %"class.icu_77::UObject", ptr, ptr }
%"class.icu_77::UObject" = type { ptr }

; Function Attrs: inlinehint mustprogress nounwind uwtable
define internal noundef signext i8 @_ZL9U_FAILURE10UErrorCode(i32 noundef %0) #2 {
  %2 = alloca i32, align 4
  store i32 %0, ptr %2, align 4, !tbaa !15
  %3 = load i32, ptr %2, align 4, !tbaa !15
  %4 = icmp sgt i32 %3, 0
  %5 = zext i1 %4 to i8
  ret i8 %5
}

; Function Attrs: mustprogress uwtable
define void @_ZN6icu_7714TimeUnitFormat15initDataMembersER10UErrorCode(ptr noundef nonnull align 8 dereferenceable(124) %0, ptr noundef nonnull align 4 dereferenceable(4) %1) #1 align 2 {
  %3 = alloca ptr, align 8
  %4 = alloca ptr, align 8
  %5 = alloca i32, align 4
  store ptr %0, ptr %3, align 8, !tbaa !23
  store ptr %1, ptr %4, align 8, !tbaa !22
  %6 = load ptr, ptr %3, align 8
  %7 = load ptr, ptr %4, align 8, !tbaa !22
  %8 = load i32, ptr %7, align 4, !tbaa !15
  %9 = call noundef signext i8 @_ZL9U_FAILURE10UErrorCode(i32 noundef %8)
  %10 = icmp ne i8 %9, 0
  br i1 %10, label %11, label %12

11:                                               ; preds = %2
  br label %30

12:                                               ; preds = %2
  call void @llvm.lifetime.start.p0(i64 4, ptr %5) #11
  store i32 0, ptr %5, align 4, !tbaa !29
  br label %13

13:                                               ; preds = %27, %12
  %14 = load i32, ptr %5, align 4, !tbaa !29
  %15 = icmp slt i32 %14, 7
  br i1 %15, label %17, label %16

16:                                               ; preds = %13
  call void @llvm.lifetime.end.p0(i64 4, ptr %5) #11
  br label %30

17:                                               ; preds = %13
  %18 = getelementptr inbounds nuw %"class.icu_77::TimeUnitFormat", ptr %6, i32 0, i32 1
  %19 = load i32, ptr %5, align 4, !tbaa !29
  %20 = zext i32 %19 to i64
  %21 = getelementptr inbounds nuw [7 x ptr], ptr %18, i64 0, i64 %20
  %22 = load ptr, ptr %21, align 8, !tbaa !31
  call void @_ZN6icu_7714TimeUnitFormat10deleteHashEPNS_9HashtableE(ptr noundef nonnull align 8 dereferenceable(124) %6, ptr noundef %22)
  %23 = getelementptr inbounds nuw %"class.icu_77::TimeUnitFormat", ptr %6, i32 0, i32 1
  %24 = load i32, ptr %5, align 4, !tbaa !29
  %25 = zext i32 %24 to i64
  %26 = getelementptr inbounds nuw [7 x ptr], ptr %23, i64 0, i64 %25
  store ptr null, ptr %26, align 8, !tbaa !31
  br label %27

27:                                               ; preds = %17
  %28 = load i32, ptr %5, align 4, !tbaa !29
  %29 = add nsw i32 %28, 1
  store i32 %29, ptr %5, align 4, !tbaa !29
  br label %13, !llvm.loop !96

30:                                               ; preds = %11, %16
  ret void
}