; Function Attrs: mustprogress uwtable
define void @_ZN6icu_7714TimeUnitFormat15initDataMembersER10UErrorCode(ptr noundef nonnull align 8 captures(none) dereferenceable(124) %0, ptr noundef nonnull readonly align 4 captures(none) dereferenceable(4) %1) local_unnamed_addr #1 align 2 {
  %3 = load i32, ptr %1, align 4, !tbaa !13
  %4 = icmp slt i32 %3, 1
  br i1 %4, label %.preheader, label %.loopexit

.preheader:                                       ; preds = %2
  %5 = getelementptr inbounds nuw i8, ptr %0, i64 64
  br label %6

6:                                                ; preds = %.preheader, %6
  %indvars.iv = phi i64 [ 0, %.preheader ], [ %indvars.iv.next, %6 ]
  %7 = getelementptr inbounds nuw [7 x ptr], ptr %5, i64 0, i64 %indvars.iv
  %8 = load ptr, ptr %7, align 8, !tbaa !17
  tail call void @_ZN6icu_7714TimeUnitFormat10deleteHashEPNS_9HashtableE(ptr nonnull align 8 poison, ptr noundef %8)
  store ptr null, ptr %7, align 8, !tbaa !17
  %indvars.iv.next = add nuw nsw i64 %indvars.iv, 1
  %exitcond.not = icmp eq i64 %indvars.iv.next, 7
  br i1 %exitcond.not, label %.loopexit, label %6, !llvm.loop !54

.loopexit:                                        ; preds = %6, %2
  ret void
}